target datalayout = "e-m:e-p270:32:32-p271:32:32-p272:64:64-i64:64-i128:128-f80:128-n8:16:32:64-S128"
target triple = "x86_64-pc-linux-gnu"

%class.IdealLoopTree = type <{ ptr, ptr, ptr, ptr, ptr, ptr, i32, i32, %class.Node_List, i16, i8, [5 x i8], ptr, ptr, i8, [7 x i8] }>
%class.Node_List = type <{ %class.Node_Array, i32, [4 x i8] }>
%class.Node_Array = type { ptr, i32, ptr }
%class.Node = type <{ ptr, ptr, ptr, i32, i32, i32, i32, i32, i32, i32, [4 x i8] }>
%class.PhaseIdealLoop = type <{ %class.PhaseTransform, %class.Node_List, ptr, ptr, ptr, i32, [4 x i8], ptr, i8, [7 x i8], %class.Node_List, %class.Node_List, %class.GrowableArray, i32, i32, ptr, ptr, ptr, i32, i8, [3 x i8], i32, i8, [3 x i8] }>
%class.PhaseTransform = type { ptr, %class.Phase }
%class.Phase = type { i32, ptr }
%class.GrowableArray = type { %class.GrowableArrayWithAllocator, %class.GrowableArrayMetadata }
%class.GrowableArrayWithAllocator = type { %class.GrowableArrayView }
%class.GrowableArrayView = type { %class.GrowableArrayBase, ptr }
%class.GrowableArrayBase = type { i32, i32 }
%class.GrowableArrayMetadata = type { i64 }
%class.LoopNode = type { %class.RegionNode.base, i32, i8, float }
%class.RegionNode.base = type { %class.Node.base, i8, i32 }
%class.Node.base = type <{ ptr, ptr, ptr, i32, i32, i32, i32, i32, i32, i32 }>

; Function Attrs: mustprogress nounwind uwtable
define linkonce_odr hidden noundef ptr @_ZNK4Node21as_BaseCountedLoopEndEv(ptr noundef nonnull align 8 dereferenceable(52) %0) #1 comdat align 2 {
  %2 = alloca ptr, align 8
  store ptr %0, ptr %2, align 8
  %3 = load ptr, ptr %2, align 8
  ret ptr %3
}

; Function Attrs: mustprogress nounwind uwtable
define linkonce_odr hidden noundef zeroext i1 @_ZNK4Node21is_BaseCountedLoopEndEv(ptr noundef nonnull align 8 dereferenceable(52) %0) #1 comdat align 2 {
  %2 = alloca ptr, align 8
  store ptr %0, ptr %2, align 8
  %3 = load ptr, ptr %2, align 8
  %4 = getelementptr inbounds %class.Node, ptr %3, i32 0, i32 8
  %5 = load i32, ptr %4, align 4
  %6 = and i32 %5, 63
  %7 = icmp eq i32 %6, 53
  ret i1 %7
}

; Function Attrs: mustprogress nounwind uwtable
define linkonce_odr hidden noundef ptr @_ZNK19BaseCountedLoopNode12back_controlEv(ptr noundef nonnull align 8 dereferenceable(72) %0) #1 comdat align 2 {
  %2 = alloca ptr, align 8
  store ptr %0, ptr %2, align 8
  %3 = load ptr, ptr %2, align 8
  %4 = call noundef ptr @_ZNK4Node2inEj(ptr noundef nonnull align 8 dereferenceable(52) %3, i32 noundef 2)
  ret ptr %4
}

; Function Attrs: mustprogress nounwind uwtable
define linkonce_odr hidden noundef ptr @_ZNK19BaseCountedLoopNode16loopexit_or_nullEv(ptr noundef nonnull align 8 dereferenceable(72) %0) #1 comdat align 2 {
  %2 = alloca ptr, align 8
  %3 = alloca ptr, align 8
  %4 = alloca ptr, align 8
  %5 = alloca ptr, align 8
  %6 = alloca ptr, align 8
  store ptr %0, ptr %3, align 8
  %7 = load ptr, ptr %3, align 8
  %8 = call noundef ptr @_ZNK19BaseCountedLoopNode12back_controlEv(ptr noundef nonnull align 8 dereferenceable(72) %7)
  store ptr %8, ptr %4, align 8
  %9 = load ptr, ptr %4, align 8
  %10 = icmp eq ptr %9, null
  br i1 %10, label %11, label %12

11:                                               ; preds = %1
  store ptr null, ptr %2, align 8
  br label %36

12:                                               ; preds = %1
  %13 = load ptr, ptr %4, align 8
  %14 = call noundef ptr @_ZNK4Node2inEj(ptr noundef nonnull align 8 dereferenceable(52) %13, i32 noundef 0)
  store ptr %14, ptr %5, align 8
  %15 = load ptr, ptr %5, align 8
  %16 = call noundef zeroext i1 @_ZNK4Node21is_BaseCountedLoopEndEv(ptr noundef nonnull align 8 dereferenceable(52) %15)
  br i1 %16, label %18, label %17

17:                                               ; preds = %12
  store ptr null, ptr %2, align 8
  br label %36

18:                                               ; preds = %12
  %19 = load ptr, ptr %5, align 8
  %20 = call noundef ptr @_ZNK4Node21as_BaseCountedLoopEndEv(ptr noundef nonnull align 8 dereferenceable(52) %19)
  store ptr %20, ptr %6, align 8
  %21 = load ptr, ptr %6, align 8
  %22 = load ptr, ptr %21, align 8
  %23 = getelementptr inbounds ptr, ptr %22, i64 26
  %24 = load ptr, ptr %23, align 8
  %25 = call noundef zeroext i8 %24(ptr noundef nonnull align 8 dereferenceable(60) %21)
  %26 = zext i8 %25 to i32
  %27 = load ptr, ptr %7, align 8
  %28 = getelementptr inbounds ptr, ptr %27, i64 29
  %29 = load ptr, ptr %28, align 8
  %30 = call noundef zeroext i8 %29(ptr noundef nonnull align 8 dereferenceable(72) %7)
  %31 = zext i8 %30 to i32
  %32 = icmp ne i32 %26, %31
  br i1 %32, label %33, label %34

33:                                               ; preds = %18
  store ptr null, ptr %2, align 8
  br label %36

34:                                               ; preds = %18
  %35 = load ptr, ptr %6, align 8
  store ptr %35, ptr %2, align 8
  br label %36

36:                                               ; preds = %34, %33, %17, %11
  %37 = load ptr, ptr %2, align 8
  ret ptr %37
}

; Function Attrs: mustprogress nounwind uwtable
define linkonce_odr hidden noundef ptr @_ZNK18CountedLoopEndNode8loopnodeEv(ptr noundef nonnull align 8 dereferenceable(60) %0) #1 comdat align 2 {
  %2 = alloca ptr, align 8
  store ptr %0, ptr %2, align 8
  %3 = load ptr, ptr %2, align 8
  %4 = call noundef ptr @_ZNK22BaseCountedLoopEndNode8loopnodeEv(ptr noundef nonnull align 8 dereferenceable(60) %3)
  ret ptr %4
}

; Function Attrs: mustprogress nounwind uwtable
define linkonce_odr hidden noundef ptr @_ZNK4Node17as_CountedLoopEndEv(ptr noundef nonnull align 8 dereferenceable(52) %0) #1 comdat align 2 {
  %2 = alloca ptr, align 8
  store ptr %0, ptr %2, align 8
  %3 = load ptr, ptr %2, align 8
  ret ptr %3
}

; Function Attrs: mustprogress nounwind uwtable
define linkonce_odr hidden noundef i32 @_ZNK4Node3reqEv(ptr noundef nonnull align 8 dereferenceable(52) %0) #1 comdat align 2 {
  %2 = alloca ptr, align 8
  store ptr %0, ptr %2, align 8
  %3 = load ptr, ptr %2, align 8
  %4 = getelementptr inbounds %class.Node, ptr %3, i32 0, i32 3
  %5 = load i32, ptr %4, align 8
  ret i32 %5
}

; Function Attrs: mustprogress nounwind uwtable
define linkonce_odr hidden noundef ptr @_ZNK19BaseCountedLoopNode8loopexitEv(ptr noundef nonnull align 8 dereferenceable(72) %0) #1 comdat align 2 {
  %2 = alloca ptr, align 8
  %3 = alloca ptr, align 8
  store ptr %0, ptr %2, align 8
  %4 = load ptr, ptr %2, align 8
  %5 = call noundef ptr @_ZNK19BaseCountedLoopNode16loopexit_or_nullEv(ptr noundef nonnull align 8 dereferenceable(72) %4)
  store ptr %5, ptr %3, align 8
  %6 = load ptr, ptr %3, align 8
  ret ptr %6
}

; Function Attrs: mustprogress nounwind uwtable
define internal noundef ptr @_ZL20locate_pre_from_mainP15CountedLoopNode(ptr noundef %0) #1 {
  %2 = alloca ptr, align 8
  %3 = alloca ptr, align 8
  %4 = alloca ptr, align 8
  %5 = alloca ptr, align 8
  %6 = alloca ptr, align 8
  store ptr %0, ptr %2, align 8
  %7 = load ptr, ptr %2, align 8
  %8 = call noundef ptr @_ZN15CountedLoopNode35skip_assertion_predicates_with_haltEv(ptr noundef nonnull align 8 dereferenceable(92) %7)
  store ptr %8, ptr %3, align 8
  %9 = load ptr, ptr %3, align 8
  %10 = call noundef ptr @_ZNK4Node2inEj(ptr noundef nonnull align 8 dereferenceable(52) %9, i32 noundef 0)
  store ptr %10, ptr %4, align 8
  %11 = load ptr, ptr %4, align 8
  %12 = call noundef ptr @_ZNK4Node2inEj(ptr noundef nonnull align 8 dereferenceable(52) %11, i32 noundef 0)
  store ptr %12, ptr %5, align 8
  %13 = load ptr, ptr %5, align 8
  %14 = call noundef ptr @_ZNK4Node2inEj(ptr noundef nonnull align 8 dereferenceable(52) %13, i32 noundef 0)
  %15 = call noundef ptr @_ZNK4Node17as_CountedLoopEndEv(ptr noundef nonnull align 8 dereferenceable(52) %14)
  %16 = call noundef ptr @_ZNK18CountedLoopEndNode8loopnodeEv(ptr noundef nonnull align 8 dereferenceable(60) %15)
  store ptr %16, ptr %6, align 8
  %17 = load ptr, ptr %6, align 8
  ret ptr %17
}

; Function Attrs: mustprogress nounwind uwtable
define linkonce_odr hidden noundef zeroext i1 @_ZNK15CountedLoopNode19is_main_no_pre_loopEv(ptr noundef nonnull align 8 dereferenceable(92) %0) #1 comdat align 2 {
  %2 = alloca ptr, align 8
  store ptr %0, ptr %2, align 8
  %3 = load ptr, ptr %2, align 8
  %4 = getelementptr inbounds %class.LoopNode, ptr %3, i32 0, i32 1
  %5 = load i32, ptr %4, align 4
  %6 = and i32 %5, 4
  %7 = icmp ne i32 %6, 0
  ret i1 %7
}

; Function Attrs: mustprogress nounwind uwtable
define linkonce_odr hidden noundef zeroext i1 @_ZNK15CountedLoopNode12is_main_loopEv(ptr noundef nonnull align 8 dereferenceable(92) %0) #1 comdat align 2 {
  %2 = alloca ptr, align 8
  store ptr %0, ptr %2, align 8
  %3 = load ptr, ptr %2, align 8
  %4 = getelementptr inbounds %class.LoopNode, ptr %3, i32 0, i32 1
  %5 = load i32, ptr %4, align 4
  %6 = and i32 %5, 3
  %7 = icmp eq i32 %6, 2
  ret i1 %7
}

; Function Attrs: mustprogress nounwind uwtable
define linkonce_odr hidden noundef ptr @_ZNK4Node14as_CountedLoopEv(ptr noundef nonnull align 8 dereferenceable(52) %0) #1 comdat align 2 {
  %2 = alloca ptr, align 8
  store ptr %0, ptr %2, align 8
  %3 = load ptr, ptr %2, align 8
  ret ptr %3
}

; Function Attrs: mustprogress nounwind uwtable
define linkonce_odr hidden noundef zeroext i1 @_ZNK4Node14is_CountedLoopEv(ptr noundef nonnull align 8 dereferenceable(52) %0) #1 comdat align 2 {
  %2 = alloca ptr, align 8
  store ptr %0, ptr %2, align 8
  %3 = load ptr, ptr %2, align 8
  %4 = getelementptr inbounds %class.Node, ptr %3, i32 0, i32 8
  %5 = load i32, ptr %4, align 4
  %6 = and i32 %5, 1023
  %7 = icmp eq i32 %6, 864
  ret i1 %7
}

; Function Attrs: mustprogress nounwind uwtable
define linkonce_odr hidden noundef ptr @_ZNK4Node2inEj(ptr noundef nonnull align 8 dereferenceable(52) %0, i32 noundef %1) #1 comdat align 2 {
  %3 = alloca ptr, align 8
  %4 = alloca i32, align 4
  store ptr %0, ptr %3, align 8
  store i32 %1, ptr %4, align 4
  %5 = load ptr, ptr %3, align 8
  %6 = getelementptr inbounds %class.Node, ptr %5, i32 0, i32 1
  %7 = load ptr, ptr %6, align 8
  %8 = load i32, ptr %4, align 4
  %9 = zext i32 %8 to i64
  %10 = getelementptr inbounds ptr, ptr %7, i64 %9
  %11 = load ptr, ptr %10, align 8
  ret ptr %11
}

; Function Attrs: mustprogress nounwind uwtable
define linkonce_odr hidden noundef ptr @_ZNK22BaseCountedLoopEndNode8cmp_nodeEv(ptr noundef nonnull align 8 dereferenceable(60) %0) #1 comdat align 2 {
  %2 = alloca ptr, align 8
  store ptr %0, ptr %2, align 8
  %3 = load ptr, ptr %2, align 8
  %4 = call noundef ptr @_ZNK4Node2inEj(ptr noundef nonnull align 8 dereferenceable(52) %3, i32 noundef 1)
  %5 = call noundef i32 @_ZNK4Node3reqEv(ptr noundef nonnull align 8 dereferenceable(52) %4)
  %6 = icmp uge i32 %5, 2
  br i1 %6, label %7, label %10

7:                                                ; preds = %1
  %8 = call noundef ptr @_ZNK4Node2inEj(ptr noundef nonnull align 8 dereferenceable(52) %3, i32 noundef 1)
  %9 = call noundef ptr @_ZNK4Node2inEj(ptr noundef nonnull align 8 dereferenceable(52) %8, i32 noundef 1)
  br label %11

10:                                               ; preds = %1
  br label %11

11:                                               ; preds = %10, %7
  %12 = phi ptr [ %9, %7 ], [ null, %10 ]
  ret ptr %12
}

; Function Attrs: mustprogress nounwind uwtable
define linkonce_odr hidden noundef ptr @_ZNK15CountedLoopNode8loopexitEv(ptr noundef nonnull align 8 dereferenceable(92) %0) #1 comdat align 2 {
  %2 = alloca ptr, align 8
  store ptr %0, ptr %2, align 8
  %3 = load ptr, ptr %2, align 8
  %4 = call noundef ptr @_ZNK19BaseCountedLoopNode8loopexitEv(ptr noundef nonnull align 8 dereferenceable(72) %3)
  ret ptr %4
}

; Function Attrs: mustprogress nounwind uwtable
define hidden void @_ZN13IdealLoopTree22remove_main_post_loopsEP15CountedLoopNodeP14PhaseIdealLoop(ptr noundef nonnull align 8 dereferenceable(113) %0, ptr noundef %1, ptr noundef %2) #1 align 2 {
  %4 = alloca ptr, align 8
  %5 = alloca ptr, align 8
  %6 = alloca ptr, align 8
  %7 = alloca ptr, align 8
  %8 = alloca ptr, align 8
  %9 = alloca ptr, align 8
  %10 = alloca ptr, align 8
  %11 = alloca ptr, align 8
  %12 = alloca ptr, align 8
  store ptr %0, ptr %4, align 8
  store ptr %1, ptr %5, align 8
  store ptr %2, ptr %6, align 8
  %13 = load ptr, ptr %4, align 8
  %14 = load ptr, ptr %5, align 8
  %15 = call noundef ptr @_ZNK15CountedLoopNode8loopexitEv(ptr noundef nonnull align 8 dereferenceable(92) %14)
  store ptr %15, ptr %7, align 8
  %16 = load ptr, ptr %7, align 8
  %17 = call noundef ptr @_ZNK22BaseCountedLoopEndNode8cmp_nodeEv(ptr noundef nonnull align 8 dereferenceable(60) %16)
  store ptr %17, ptr %8, align 8
  %18 = load ptr, ptr %8, align 8
  %19 = call noundef ptr @_ZNK4Node2inEj(ptr noundef nonnull align 8 dereferenceable(52) %18, i32 noundef 2)
  %20 = load ptr, ptr %19, align 8
  %21 = getelementptr inbounds ptr, ptr %20, i64 0
  %22 = load ptr, ptr %21, align 8
  %23 = call noundef i32 %22(ptr noundef nonnull align 8 dereferenceable(52) %19)
  %24 = icmp ne i32 %23, 255
  br i1 %24, label %25, label %26

25:                                               ; preds = %3
  br label %75

26:                                               ; preds = %3
  %27 = getelementptr inbounds %class.IdealLoopTree, ptr %13, i32 0, i32 1
  %28 = load ptr, ptr %27, align 8
  %29 = icmp eq ptr %28, null
  br i1 %29, label %30, label %31

30:                                               ; preds = %26
  br label %75

31:                                               ; preds = %26
  %32 = getelementptr inbounds %class.IdealLoopTree, ptr %13, i32 0, i32 1
  %33 = load ptr, ptr %32, align 8
  %34 = getelementptr inbounds %class.IdealLoopTree, ptr %33, i32 0, i32 3
  %35 = load ptr, ptr %34, align 8
  store ptr %35, ptr %9, align 8
  %36 = load ptr, ptr %9, align 8
  %37 = call noundef zeroext i1 @_ZNK4Node14is_CountedLoopEv(ptr noundef nonnull align 8 dereferenceable(52) %36)
  br i1 %37, label %39, label %38

38:                                               ; preds = %31
  br label %75

39:                                               ; preds = %31
  %40 = load ptr, ptr %9, align 8
  %41 = call noundef ptr @_ZNK4Node14as_CountedLoopEv(ptr noundef nonnull align 8 dereferenceable(52) %40)
  store ptr %41, ptr %10, align 8
  %42 = load ptr, ptr %10, align 8
  %43 = call noundef zeroext i1 @_ZNK15CountedLoopNode12is_main_loopEv(ptr noundef nonnull align 8 dereferenceable(92) %42)
  br i1 %43, label %44, label %47

44:                                               ; preds = %39
  %45 = load ptr, ptr %10, align 8
  %46 = call noundef zeroext i1 @_ZNK15CountedLoopNode19is_main_no_pre_loopEv(ptr noundef nonnull align 8 dereferenceable(92) %45)
  br i1 %46, label %47, label %48

47:                                               ; preds = %44, %39
  br label %75

48:                                               ; preds = %44
  %49 = load ptr, ptr %10, align 8
  %50 = call noundef ptr @_ZL20locate_pre_from_mainP15CountedLoopNode(ptr noundef %49)
  %51 = load ptr, ptr %5, align 8
  %52 = icmp ne ptr %50, %51
  br i1 %52, label %53, label %54

53:                                               ; preds = %48
  br label %75

54:                                               ; preds = %48
  %55 = load ptr, ptr %10, align 8
  %56 = call noundef ptr @_ZN15CountedLoopNode35skip_assertion_predicates_with_haltEv(ptr noundef nonnull align 8 dereferenceable(92) %55)
  %57 = call noundef ptr @_ZNK4Node2inEj(ptr noundef nonnull align 8 dereferenceable(52) %56, i32 noundef 0)
  store ptr %57, ptr %11, align 8
  %58 = load ptr, ptr %6, align 8
  %59 = getelementptr inbounds %class.PhaseIdealLoop, ptr %58, i32 0, i32 2
  %60 = load ptr, ptr %59, align 8
  %61 = load ptr, ptr %8, align 8
  %62 = load ptr, ptr %8, align 8
  %63 = call noundef ptr @_ZNK4Node2inEj(ptr noundef nonnull align 8 dereferenceable(52) %62, i32 noundef 2)
  %64 = call noundef ptr @_ZNK4Node2inEj(ptr noundef nonnull align 8 dereferenceable(52) %63, i32 noundef 2)
  call void @_ZN12PhaseIterGVN16replace_input_ofEP4NodejS1_(ptr noundef nonnull align 8 dereferenceable(2416) %60, ptr noundef %61, i32 noundef 2, ptr noundef %64)
  %65 = load ptr, ptr %11, align 8
  %66 = call noundef ptr @_ZNK4Node2inEj(ptr noundef nonnull align 8 dereferenceable(52) %65, i32 noundef 1)
  %67 = call noundef ptr @_ZNK4Node2inEj(ptr noundef nonnull align 8 dereferenceable(52) %66, i32 noundef 1)
  store ptr %67, ptr %12, align 8
  %68 = load ptr, ptr %6, align 8
  %69 = getelementptr inbounds %class.PhaseIdealLoop, ptr %68, i32 0, i32 2
  %70 = load ptr, ptr %69, align 8
  %71 = load ptr, ptr %12, align 8
  %72 = load ptr, ptr %12, align 8
  %73 = call noundef ptr @_ZNK4Node2inEj(ptr noundef nonnull align 8 dereferenceable(52) %72, i32 noundef 2)
  %74 = call noundef ptr @_ZNK4Node2inEj(ptr noundef nonnull align 8 dereferenceable(52) %73, i32 noundef 1)
  call void @_ZN12PhaseIterGVN16replace_input_ofEP4NodejS1_(ptr noundef nonnull align 8 dereferenceable(2416) %70, ptr noundef %71, i32 noundef 2, ptr noundef %74)
  br label %75

75:                                               ; preds = %54, %53, %47, %38, %30, %25
  ret void
}