; Function Attrs: mustprogress nounwind uwtable
define hidden void @_ZN13IdealLoopTree22remove_main_post_loopsEP15CountedLoopNodeP14PhaseIdealLoop(ptr nocapture noundef nonnull readonly align 8 dereferenceable(113) %0, ptr noundef %1, ptr nocapture noundef readonly %2) local_unnamed_addr #0 align 2 {
_ZNK15CountedLoopNode8loopexitEv.exit:
  %3 = getelementptr inbounds i8, ptr %1, i64 8
  %4 = load ptr, ptr %3, align 8
  %5 = getelementptr inbounds i8, ptr %4, i64 16
  %6 = load ptr, ptr %5, align 8, !nonnull !8, !noundef !8
  %7 = getelementptr inbounds i8, ptr %6, i64 8
  %8 = load ptr, ptr %7, align 8
  %9 = load ptr, ptr %8, align 8
  %10 = getelementptr inbounds i8, ptr %9, i64 44
  %11 = load i32, ptr %10, align 4
  %12 = and i32 %11, 63
  %13 = icmp eq i32 %12, 53
  tail call void @llvm.assume(i1 %13)
  %14 = load ptr, ptr %9, align 8
  %15 = getelementptr inbounds i8, ptr %14, i64 208
  %16 = load ptr, ptr %15, align 8
  %17 = tail call noundef zeroext i8 %16(ptr noundef nonnull align 8 dereferenceable(60) %9) #11
  %18 = load ptr, ptr %1, align 8
  %19 = getelementptr inbounds i8, ptr %18, i64 232
  %20 = load ptr, ptr %19, align 8
  %21 = tail call noundef zeroext i8 %20(ptr noundef nonnull align 8 dereferenceable(72) %1) #11
  %.not.i.i.i = icmp eq i8 %17, %21
  %..i.i.i = select i1 %.not.i.i.i, ptr %9, ptr null
  %22 = getelementptr inbounds i8, ptr %..i.i.i, i64 8
  %23 = load ptr, ptr %22, align 8
  %24 = getelementptr inbounds i8, ptr %23, i64 8
  %25 = load ptr, ptr %24, align 8
  %26 = getelementptr inbounds i8, ptr %25, i64 24
  %27 = load i32, ptr %26, align 8
  %28 = icmp ugt i32 %27, 1
  br i1 %28, label %29, label %_ZNK22BaseCountedLoopEndNode8cmp_nodeEv.exit

29:                                               ; preds = %_ZNK15CountedLoopNode8loopexitEv.exit
  %30 = getelementptr inbounds i8, ptr %25, i64 8
  %31 = load ptr, ptr %30, align 8
  %32 = getelementptr inbounds i8, ptr %31, i64 8
  %33 = load ptr, ptr %32, align 8
  br label %_ZNK22BaseCountedLoopEndNode8cmp_nodeEv.exit

_ZNK22BaseCountedLoopEndNode8cmp_nodeEv.exit:     ; preds = %_ZNK15CountedLoopNode8loopexitEv.exit, %29
  %34 = phi ptr [ %33, %29 ], [ null, %_ZNK15CountedLoopNode8loopexitEv.exit ]
  %35 = getelementptr inbounds i8, ptr %34, i64 8
  %36 = load ptr, ptr %35, align 8
  %37 = getelementptr inbounds i8, ptr %36, i64 16
  %38 = load ptr, ptr %37, align 8
  %39 = load ptr, ptr %38, align 8
  %40 = load ptr, ptr %39, align 8
  %41 = tail call noundef i32 %40(ptr noundef nonnull align 8 dereferenceable(52) %38) #11
  %.not = icmp eq i32 %41, 255
  br i1 %.not, label %42, label %100

42:                                               ; preds = %_ZNK22BaseCountedLoopEndNode8cmp_nodeEv.exit
  %43 = getelementptr inbounds i8, ptr %0, i64 8
  %44 = load ptr, ptr %43, align 8
  %45 = icmp eq ptr %44, null
  br i1 %45, label %100, label %46

46:                                               ; preds = %42
  %47 = getelementptr inbounds i8, ptr %44, i64 24
  %48 = load ptr, ptr %47, align 8
  %49 = getelementptr inbounds i8, ptr %48, i64 44
  %50 = load i32, ptr %49, align 4
  %51 = and i32 %50, 1023
  %52 = icmp eq i32 %51, 864
  br i1 %52, label %53, label %100

53:                                               ; preds = %46
  %54 = getelementptr inbounds i8, ptr %48, i64 60
  %55 = load i32, ptr %54, align 4
  %56 = and i32 %55, 7
  %or.cond.not = icmp eq i32 %56, 2
  br i1 %or.cond.not, label %57, label %100

57:                                               ; preds = %53
  %58 = tail call noundef ptr @_ZN15CountedLoopNode35skip_assertion_predicates_with_haltEv(ptr noundef nonnull align 8 dereferenceable(92) %48) #11
  %59 = getelementptr inbounds i8, ptr %58, i64 8
  %60 = load ptr, ptr %59, align 8
  %61 = load ptr, ptr %60, align 8
  %62 = getelementptr inbounds i8, ptr %61, i64 8
  %63 = load ptr, ptr %62, align 8
  %64 = load ptr, ptr %63, align 8
  %65 = getelementptr inbounds i8, ptr %64, i64 8
  %66 = load ptr, ptr %65, align 8
  %67 = load ptr, ptr %66, align 8
  %68 = tail call noundef ptr @_ZNK22BaseCountedLoopEndNode8loopnodeEv(ptr noundef nonnull align 8 dereferenceable(60) %67)
  %.not18 = icmp eq ptr %68, %1
  br i1 %.not18, label %69, label %100

69:                                               ; preds = %57
  %70 = tail call noundef ptr @_ZN15CountedLoopNode35skip_assertion_predicates_with_haltEv(ptr noundef nonnull align 8 dereferenceable(92) %48) #11
  %71 = getelementptr inbounds i8, ptr %70, i64 8
  %72 = load ptr, ptr %71, align 8
  %73 = load ptr, ptr %72, align 8
  %74 = getelementptr inbounds i8, ptr %2, i64 56
  %75 = load ptr, ptr %74, align 8
  %76 = load ptr, ptr %35, align 8
  %77 = getelementptr inbounds i8, ptr %76, i64 16
  %78 = load ptr, ptr %77, align 8
  %79 = getelementptr inbounds i8, ptr %78, i64 8
  %80 = load ptr, ptr %79, align 8
  %81 = getelementptr inbounds i8, ptr %80, i64 16
  %82 = load ptr, ptr %81, align 8
  tail call void @_ZN12PhaseIterGVN16replace_input_ofEP4NodejS1_(ptr noundef nonnull align 8 dereferenceable(2416) %75, ptr noundef nonnull %34, i32 noundef 2, ptr noundef %82)
  %83 = getelementptr inbounds i8, ptr %73, i64 8
  %84 = load ptr, ptr %83, align 8
  %85 = getelementptr inbounds i8, ptr %84, i64 8
  %86 = load ptr, ptr %85, align 8
  %87 = getelementptr inbounds i8, ptr %86, i64 8
  %88 = load ptr, ptr %87, align 8
  %89 = getelementptr inbounds i8, ptr %88, i64 8
  %90 = load ptr, ptr %89, align 8
  %91 = load ptr, ptr %74, align 8
  %92 = getelementptr inbounds i8, ptr %90, i64 8
  %93 = load ptr, ptr %92, align 8
  %94 = getelementptr inbounds i8, ptr %93, i64 16
  %95 = load ptr, ptr %94, align 8
  %96 = getelementptr inbounds i8, ptr %95, i64 8
  %97 = load ptr, ptr %96, align 8
  %98 = getelementptr inbounds i8, ptr %97, i64 8
  %99 = load ptr, ptr %98, align 8
  tail call void @_ZN12PhaseIterGVN16replace_input_ofEP4NodejS1_(ptr noundef nonnull align 8 dereferenceable(2416) %91, ptr noundef nonnull %90, i32 noundef 2, ptr noundef %99)
  br label %100

100:                                              ; preds = %57, %53, %46, %42, %_ZNK22BaseCountedLoopEndNode8cmp_nodeEv.exit, %69
  ret void
}